; Function Attrs: nounwind uwtable
define internal ptr @faulthandler_sigfpe(ptr readnone captures(none) %0, ptr readnone captures(none) %1) #0 {
  %3 = alloca %struct.rlimit, align 8
  %4 = alloca i32, align 4
  %5 = alloca i32, align 4
  %6 = alloca i32, align 4
  call void @llvm.lifetime.start.p0(i64 16, ptr nonnull %3) #16
  %7 = call i32 @getrlimit64(i32 noundef 4, ptr noundef nonnull %3) #16
  %8 = icmp eq i32 %7, 0
  br i1 %8, label %9, label %faulthandler_suppress_crash_report.exit

9:                                                ; preds = %2
  store i64 0, ptr %3, align 8, !tbaa !224
  %10 = call i32 @setrlimit64(i32 noundef 4, ptr noundef nonnull %3) #16
  br label %faulthandler_suppress_crash_report.exit

faulthandler_suppress_crash_report.exit:          ; preds = %2, %9
  call void @llvm.lifetime.end.p0(i64 16, ptr nonnull %3) #16
  call void @llvm.lifetime.start.p0(i64 4, ptr nonnull %4)
  store volatile i32 1, ptr %4, align 4, !tbaa !202
  call void @llvm.lifetime.start.p0(i64 4, ptr nonnull %5)
  store volatile i32 0, ptr %5, align 4, !tbaa !202
  call void @llvm.lifetime.start.p0(i64 4, ptr nonnull %6)
  %.0..0..0..0.2 = load volatile i32, ptr %4, align 4, !tbaa !202
  %.0..0..0..0.1 = load volatile i32, ptr %5, align 4, !tbaa !202
  %11 = sdiv i32 %.0..0..0..0.2, %.0..0..0..0.1
  store volatile i32 %11, ptr %6, align 4, !tbaa !202
  %12 = call i32 @raise(i32 noundef 8) #16
  %.0..0..0..0. = load volatile i32, ptr %6, align 4, !tbaa !202
  %13 = sext i32 %.0..0..0..0. to i64
  %14 = call ptr @PyLong_FromLong(i64 noundef %13) #16
  call void @llvm.lifetime.end.p0(i64 4, ptr nonnull %6)
  call void @llvm.lifetime.end.p0(i64 4, ptr nonnull %5)
  call void @llvm.lifetime.end.p0(i64 4, ptr nonnull %4)
  ret ptr %14
}